Certificate:
    Data:
        Version: 3 (0x2)
        Serial Number:
            61:5d:aa:d2:00:06:00:00:00:40
    Signature Algorithm: sha1WithRSAEncryption
        Issuer: CN=Microsoft Internet Authority
        Validity
            Not Before: May 15 20:40:55 2012 GMT
            Not After : May 15 20:50:55 2016 GMT
        Subject: DC=com, DC=microsoft, DC=corp, DC=redmond, CN=MSIT Machine Auth CA 2
        Subject Public Key Info:
            Public Key Algorithm: rsaEncryption
                Public-Key: (2048 bit)
                Modulus:
                    00:bd:c8:e8:00:eb:58:69:29:11:84:87:1c:9f:87:
                    4d:44:3d:38:1b:c7:13:93:e7:14:4c:17:2b:db:75:
                    08:c0:c9:21:ca:ae:e0:1f:e8:8c:fe:a1:df:24:8c:
                    bf:02:9c:ed:99:be:3a:53:2a:45:4e:b0:48:78:37:
                    dc:a1:63:ef:03:b7:94:29:66:6c:66:d7:6c:6a:48:
                    65:b2:dd:47:21:23:1b:b8:41:74:2f:96:dd:98:22:
                    b9:fa:f3:0e:4a:b0:2f:0b:a2:de:b7:02:13:42:70:
                    3f:78:04:14:72:e3:3a:2b:7e:28:48:1d:96:b4:db:
                    16:39:8d:b3:c4:59:a1:d7:a2:d2:64:61:33:2b:41:
                    18:c5:ab:95:6f:5d:22:07:77:cd:53:9d:03:49:65:
                    d5:88:f5:5f:9d:f0:c4:69:4f:91:08:a5:39:07:96:
                    36:af:2d:64:dc:26:5a:c1:13:ee:31:39:d6:5f:dc:
                    97:fc:27:aa:05:78:47:c5:22:26:63:53:7e:37:c2:
                    7b:64:3d:69:cb:f0:fb:8a:15:3e:52:b3:86:6a:b4:
                    c1:1c:3b:b2:f5:c7:3e:c5:76:dd:74:68:76:7a:55:
                    e6:80:7b:2e:8c:a6:da:bb:91:5a:07:cd:19:4a:ea:
                    08:5c:ff:c1:49:d6:7b:06:bf:eb:b7:4a:9f:b4:27:
                    9c:17
                Exponent: 65537 (0x10001)
        X509v3 extensions:
            1.3.6.1.4.1.311.21.1: 
                .....
            1.3.6.1.4.1.311.21.2: 
                ..#...h..f...@z.g.3...
            X509v3 Subject Key Identifier: 
                EB:DB:11:5E:F8:09:9E:D8:D6:62:9C:FD:62:9D:E3:84:4A:28:E1:27
            1.3.6.1.4.1.311.20.2: 
                .
.S.u.b.C.A
            X509v3 Key Usage: 
                Digital Signature, Certificate Sign, CRL Sign
            X509v3 Basic Constraints: critical
                CA:TRUE, pathlen:0
            X509v3 Authority Key Identifier: 
                keyid:2A:4D:97:95:5D:34:7E:9D:B6:E6:33:BE:9C:27:C1:70:7E:67:DB:C1

            X509v3 CRL Distribution Points: 

                Full Name:
                  URI:http://mscrl.microsoft.com/pki/mscorp/crl/mswww(6).crl
                  URI:http://crl.microsoft.com/pki/mscorp/crl/mswww(6).crl
                  URI:http://corppki/crl/mswww(6).crl

            Authority Information Access: 
                CA Issuers - URI:http://www.microsoft.com/pki/mscorp/mswww(6).crt
                CA Issuers - URI:http://corppki/aia/mswww(6).crt

    Signature Algorithm: sha1WithRSAEncryption
         a3:36:72:f7:45:0b:a7:86:37:de:20:8d:f5:d7:8e:da:89:00:
         7a:52:4b:85:32:b2:32:d7:ed:80:57:fd:0d:51:1c:d1:1e:3d:
         0c:3e:91:2a:30:e2:53:bc:61:07:89:02:11:b9:1b:83:48:d3:
         1a:c7:47:96:62:b7:cf:de:d7:0d:b8:9d:84:8e:de:d5:e6:e4:
         b9:c0:06:e3:1c:f4:31:43:1f:53:fc:4a:42:b5:9b:23:cd:b2:
         ec:0d:0f:81:89:ff:59:a9:00:d3:04:4a:0b:af:5b:84:f5:3b:
         4f:b9:37:91:88:21:e4:9c:ca:52:76:63:7e:88:7a:65:b4:8e:
         16:6a:f4:60:bd:2c:0e:ef:17:86:2b:75:09:58:73:c5:4f:b9:
         a8:1b:ef:2a:f4:b6:a3:b9:07:f0:a4:90:39:53:df:e1:ba:02:
         98:a5:a5:82:11:a1:06:53:b2:c2:eb:fd:ea:67:72:37:63:d0:
         85:cf:86:05:c8:c3:73:c1:db:f3:c4:d2:55:ff:a0:1d:e7:72:
         14:1a:ff:b2:ff:08:42:48:40:0a:19:82:cf:22:f3:05:c5:d5:
         df:0b:29:c4:3a:0e:c5:32:38:ef:2f:94:9a:0c:f2:d4:ee:bf:
         62:c7:e2:a4:5f:3d:6e:78:bc:10:c1:2e:4a:30:f2:87:db:89:
         38:be:fe:cc:80:8f:f5:f9:5c:cb:5c:f1:ea:02:08:6b:a5:0b:
         ef:20:5c:a3:34:cc:f0:80:b6:1f:63:b9:44:32:1c:26:41:9b:
         dd:93:a3:64:01:57:11:21:43:94:2a:57:2d:8a:4a:cb:8a:28:
         40:0a:fb:50:f9:af:26:74:13:97:82:4e:6c:64:eb:d1:c6:bf:
         5e:fd:25:da:05:46:4a:ae:c7:2f:c7:04:ef:2e:71:2e:e2:a8:
         5b:a4:ea:b2:6f:a8:91:35:c4:b7:63:17:62:0e:27:8e:3c:24:
         cd:3d:45:69:05:dc:52:c5:35:f8:11:c0:1d:df:62:60:f4:e1:
         a6:5e:70:b8:45:74:03:ab:d1:16:74:e3:9e:d3:c1:a3:e8:90:
         96:8a:8a:c2:46:46:9d:b9:5c:6c:02:1d:32:84:eb:14:85:76:
         95:aa:4d:2d:69:b6:02:f6:fe:ed:34:d5:8c:e6:fa:ac:5d:dc:
         03:40:e6:cf:77:89:ff:b1:28:ca:86:8c:c8:e7:31:47:fc:16:
         fe:54:0c:f5:26:b1:7e:dc:98:26:70:58:26:13:5c:c7:75:db:
         12:de:4c:ac:ff:9a:0c:ea:a2:c2:1c:41:04:8c:e6:47:97:47:
         6f:89:c5:48:de:37:0d:6a:d9:f0:68:24:5c:ff:19:59:e6:e1:
         70:37:38:0d:db:ee:b0:e2
-----BEGIN CERTIFICATE-----
MIIGCDCCA/CgAwIBAgIKYV2q0gAGAAAAQDANBgkqhkiG9w0BAQUFADAnMSUw
IwYDVQQDExxNaWNyb3NvZnQgSW50ZXJuZXQgQXV0aG9yaXR5MB4XDTEyMDUx
NTIwNDA1NVoXDTE2MDUxNTIwNTA1NVowgYAxEzARBgoJkiaJk/IsZAEZFgNj
b20xGTAXBgoJkiaJk/IsZAEZFgltaWNyb3NvZnQxFDASBgoJkiaJk/IsZAEZ
FgRjb3JwMRcwFQYKCZImiZPyLGQBGRYHcmVkbW9uZDEfMB0GA1UEAxMWTVNJ
VCBNYWNoaW5lIEF1dGggQ0EgMjCCASIwDQYJKoZIhvcNAQEBBQADggEPADCC
AQoCggEBAL3I6ADrWGkpEYSHHJ+HTUQ9OBvHE5PnFEwXK9t1CMDJIcqu4B/o
jP6h3ySMvwKc7Zm+OlMqRU6wSHg33KFj7wO3lClmbGbXbGpIZbLdRyEjG7hB
dC+W3ZgiufrzDkqwLwui3rcCE0JwP3gEFHLjOit+KEgdlrTbFjmNs8RZodei
0mRhMytBGMWrlW9dIgd3zVOdA0ll1Yj1X53wxGlPkQilOQeWNq8tZNwmWsET
7jE51l/cl/wnqgV4R8UiJmNTfjfCe2Q9acvw+4oVPlKzhmq0wRw7svXHPsV2
3XRodnpV5oB7Loym2ruRWgfNGUrqCFz/wUnWewa/67dKn7QnnBcCAwEAAaOC
AdowggHWMBIGCSsGAQQBgjcVAQQFAgMBAAEwIwYJKwYBBAGCNxUCBBYEFCO3
0O1oke9mm+EFQHq+Z8oz1ga9MB0GA1UdDgQWBBTr2xFe+Ame2NZinP1ineOE
SijhJzAZBgkrBgEEAYI3FAIEDB4KAFMAdQBiAEMAQTALBgNVHQ8EBAMCAYYw
EgYDVR0TAQH/BAgwBgEB/wIBADAfBgNVHSMEGDAWgBQqTZeVXTR+nbbmM76c
J8FwfmfbwTCBowYDVR0fBIGbMIGYMIGVoIGSoIGPhjZodHRwOi8vbXNjcmwu
bWljcm9zb2Z0LmNvbS9wa2kvbXNjb3JwL2NybC9tc3d3dyg2KS5jcmyGNGh0
dHA6Ly9jcmwubWljcm9zb2Z0LmNvbS9wa2kvbXNjb3JwL2NybC9tc3d3dyg2
KS5jcmyGH2h0dHA6Ly9jb3JwcGtpL2NybC9tc3d3dyg2KS5jcmwweQYIKwYB
BQUHAQEEbTBrMDwGCCsGAQUFBzAChjBodHRwOi8vd3d3Lm1pY3Jvc29mdC5j
b20vcGtpL21zY29ycC9tc3d3dyg2KS5jcnQwKwYIKwYBBQUHMAKGH2h0dHA6
Ly9jb3JwcGtpL2FpYS9tc3d3dyg2KS5jcnQwDQYJKoZIhvcNAQEFBQADggIB
AKM2cvdFC6eGN94gjfXXjtqJAHpSS4UysjLX7YBX/Q1RHNEePQw+kSow4lO8
YQeJAhG5G4NI0xrHR5Zit8/e1w24nYSO3tXm5LnABuMc9DFDH1P8SkK1myPN
suwND4GJ/1mpANMESguvW4T1O0+5N5GIIeScylJ2Y36IemW0jhZq9GC9LA7v
F4YrdQlYc8VPuagb7yr0tqO5B/CkkDlT3+G6ApilpYIRoQZTssLr/epncjdj
0IXPhgXIw3PB2/PE0lX/oB3nchQa/7L/CEJIQAoZgs8i8wXF1d8LKcQ6DsUy
OO8vlJoM8tTuv2LH4qRfPW54vBDBLkow8ofbiTi+/syAj/X5XMtc8eoCCGul
C+8gXKM0zPCAth9juUQyHCZBm92To2QBVxEhQ5QqVy2KSsuKKEAK+1D5ryZ0
E5eCTmxk69HGv179JdoFRkquxy/HBO8ucS7iqFuk6rJvqJE1xLdjF2IOJ448
JM09RWkF3FLFNfgRwB3fYmD04aZecLhFdAOr0RZ0457TwaPokJaKisJGRp25
XGwCHTKE6xSFdpWqTS1ptgL2/u001Yzm+qxd3ANA5s93if+xKMqGjMjnMUf8
Fv5UDPUmsX7cmCZwWCYTXMd12xLeTKz/mgzqosIcQQSM5keXR2+JxUjeNw1q
2fBoJFz/GVnm4XA3OA3b7rDi
-----END CERTIFICATE-----
